target datalayout = "e-m:e-p270:32:32-p271:32:32-p272:64:64-i64:64-i128:128-f80:128-n8:16:32:64-S128"
target triple = "x86_64-pc-linux-gnu"

%"class.std::_Function_base" = type { %"union.std::_Any_data", ptr }
%"union.std::_Any_data" = type { %"union.std::_Nocopy_types" }
%"union.std::_Nocopy_types" = type { { i64, i64 } }
%"class.std::function.9" = type { %"class.std::_Function_base", ptr }
%"class.cmJSONHelperBuilder::Object.60" = type <{ %"class.std::vector.61", i8, [7 x i8], %"class.std::function.9", i8, [7 x i8] }>
%"class.std::vector.61" = type { %"struct.std::_Vector_base.62" }
%"struct.std::_Vector_base.62" = type { %"struct.std::_Vector_base<cmJSONHelperBuilder::Object<(anonymous namespace)::CMakeVersion>::Member, std::allocator<cmJSONHelperBuilder::Object<(anonymous namespace)::CMakeVersion>::Member>>::_Vector_impl" }
%"struct.std::_Vector_base<cmJSONHelperBuilder::Object<(anonymous namespace)::CMakeVersion>::Member, std::allocator<cmJSONHelperBuilder::Object<(anonymous namespace)::CMakeVersion>::Member>>::_Vector_impl" = type { %"struct.std::_Vector_base<cmJSONHelperBuilder::Object<(anonymous namespace)::CMakeVersion>::Member, std::allocator<cmJSONHelperBuilder::Object<(anonymous namespace)::CMakeVersion>::Member>>::_Vector_impl_data" }
%"struct.std::_Vector_base<cmJSONHelperBuilder::Object<(anonymous namespace)::CMakeVersion>::Member, std::allocator<cmJSONHelperBuilder::Object<(anonymous namespace)::CMakeVersion>::Member>>::_Vector_impl_data" = type { ptr, ptr, ptr }
%"class.std::basic_string_view" = type { i64, ptr }
%"class.std::function.492" = type { %"class.std::_Function_base", ptr }
%"struct.cmJSONHelperBuilder::Object<(anonymous namespace)::CMakeVersion>::Member" = type <{ %"class.std::basic_string_view", %"class.std::function.492", i8, [7 x i8] }>

; Function Attrs: mustprogress nounwind uwtable
define internal void @_ZNSt8functionIFbRN12_GLOBAL__N_112CMakeVersionEPKN4Json5ValueEP11cmJSONStateEED2Ev(ptr noundef nonnull align 8 dereferenceable(32) %0) unnamed_addr #5 align 2 {
  %2 = alloca ptr, align 8
  store ptr %0, ptr %2, align 8
  %3 = load ptr, ptr %2, align 8
  call void @_ZNSt14_Function_baseD2Ev(ptr noundef nonnull align 8 dereferenceable(24) %3) #3
  ret void
}

; Function Attrs: mustprogress nounwind uwtable
define internal void @_ZN19cmJSONHelperBuilder6ObjectIN12_GLOBAL__N_112CMakeVersionEE6MemberD2Ev(ptr noundef nonnull align 8 dereferenceable(49) %0) unnamed_addr #5 align 2 {
  %2 = alloca ptr, align 8
  store ptr %0, ptr %2, align 8
  %3 = load ptr, ptr %2, align 8
  %4 = getelementptr inbounds %"struct.cmJSONHelperBuilder::Object<(anonymous namespace)::CMakeVersion>::Member", ptr %3, i32 0, i32 1
  call void @_ZNSt8functionIFbRN12_GLOBAL__N_112CMakeVersionEPKN4Json5ValueEP11cmJSONStateEED2Ev(ptr noundef nonnull align 8 dereferenceable(32) %4) #3
  ret void
}

; Function Attrs: mustprogress nounwind uwtable
define internal void @_ZNSt15__new_allocatorIN19cmJSONHelperBuilder6ObjectIN12_GLOBAL__N_112CMakeVersionEE6MemberEED2Ev(ptr noundef nonnull align 1 dereferenceable(1) %0) unnamed_addr #5 align 2 {
  %2 = alloca ptr, align 8
  store ptr %0, ptr %2, align 8
  ret void
}

; Function Attrs: mustprogress nounwind uwtable
define internal void @_ZNSt15__new_allocatorIN19cmJSONHelperBuilder6ObjectIN12_GLOBAL__N_112CMakeVersionEE6MemberEE10deallocateEPS5_m(ptr noundef nonnull align 1 dereferenceable(1) %0, ptr noundef %1, i64 noundef %2) #5 align 2 {
  %4 = alloca ptr, align 8
  %5 = alloca ptr, align 8
  %6 = alloca i64, align 8
  store ptr %0, ptr %4, align 8
  store ptr %1, ptr %5, align 8
  store i64 %2, ptr %6, align 8
  %7 = load ptr, ptr %5, align 8
  call void @_ZdlPv(ptr noundef %7) #16
  ret void
}

; Function Attrs: mustprogress nounwind uwtable
define internal void @_ZSt8_DestroyIN19cmJSONHelperBuilder6ObjectIN12_GLOBAL__N_112CMakeVersionEE6MemberEEvPT_(ptr noundef %0) #5 {
  %2 = alloca ptr, align 8
  store ptr %0, ptr %2, align 8
  %3 = load ptr, ptr %2, align 8
  call void @_ZN19cmJSONHelperBuilder6ObjectIN12_GLOBAL__N_112CMakeVersionEE6MemberD2Ev(ptr noundef nonnull align 8 dereferenceable(49) %3) #3
  ret void
}

; Function Attrs: mustprogress nounwind uwtable
define internal void @_ZNSaIN19cmJSONHelperBuilder6ObjectIN12_GLOBAL__N_112CMakeVersionEE6MemberEED2Ev(ptr noundef nonnull align 1 dereferenceable(1) %0) unnamed_addr #5 align 2 {
  %2 = alloca ptr, align 8
  store ptr %0, ptr %2, align 8
  %3 = load ptr, ptr %2, align 8
  call void @_ZNSt15__new_allocatorIN19cmJSONHelperBuilder6ObjectIN12_GLOBAL__N_112CMakeVersionEE6MemberEED2Ev(ptr noundef nonnull align 1 dereferenceable(1) %3) #3
  ret void
}

; Function Attrs: mustprogress uwtable
define internal void @_ZNSt16allocator_traitsISaIN19cmJSONHelperBuilder6ObjectIN12_GLOBAL__N_112CMakeVersionEE6MemberEEE10deallocateERS6_PS5_m(ptr noundef nonnull align 1 dereferenceable(1) %0, ptr noundef %1, i64 noundef %2) #4 align 2 {
  %4 = alloca ptr, align 8
  %5 = alloca ptr, align 8
  %6 = alloca i64, align 8
  store ptr %0, ptr %4, align 8
  store ptr %1, ptr %5, align 8
  store i64 %2, ptr %6, align 8
  %7 = load ptr, ptr %4, align 8
  %8 = load ptr, ptr %5, align 8
  %9 = load i64, ptr %6, align 8
  call void @_ZNSt15__new_allocatorIN19cmJSONHelperBuilder6ObjectIN12_GLOBAL__N_112CMakeVersionEE6MemberEE10deallocateEPS5_m(ptr noundef nonnull align 1 dereferenceable(1) %7, ptr noundef %8, i64 noundef %9)
  ret void
}

; Function Attrs: mustprogress uwtable
define internal void @_ZNSt12_Destroy_auxILb0EE9__destroyIPN19cmJSONHelperBuilder6ObjectIN12_GLOBAL__N_112CMakeVersionEE6MemberEEEvT_S9_(ptr noundef %0, ptr noundef %1) #4 align 2 {
  %3 = alloca ptr, align 8
  %4 = alloca ptr, align 8
  store ptr %0, ptr %3, align 8
  store ptr %1, ptr %4, align 8
  br label %5

5:                                                ; preds = %11, %2
  %6 = load ptr, ptr %3, align 8
  %7 = load ptr, ptr %4, align 8
  %8 = icmp ne ptr %6, %7
  br i1 %8, label %9, label %14

9:                                                ; preds = %5
  %10 = load ptr, ptr %3, align 8
  call void @_ZSt8_DestroyIN19cmJSONHelperBuilder6ObjectIN12_GLOBAL__N_112CMakeVersionEE6MemberEEvPT_(ptr noundef %10)
  br label %11

11:                                               ; preds = %9
  %12 = load ptr, ptr %3, align 8
  %13 = getelementptr inbounds %"struct.cmJSONHelperBuilder::Object<(anonymous namespace)::CMakeVersion>::Member", ptr %12, i32 1
  store ptr %13, ptr %3, align 8
  br label %5, !llvm.loop !23

14:                                               ; preds = %5
  ret void
}

; Function Attrs: mustprogress nounwind uwtable
define internal void @_ZNSt12_Vector_baseIN19cmJSONHelperBuilder6ObjectIN12_GLOBAL__N_112CMakeVersionEE6MemberESaIS5_EE12_Vector_implD2Ev(ptr noundef nonnull align 8 dereferenceable(24) %0) unnamed_addr #5 align 2 {
  %2 = alloca ptr, align 8
  store ptr %0, ptr %2, align 8
  %3 = load ptr, ptr %2, align 8
  call void @_ZNSaIN19cmJSONHelperBuilder6ObjectIN12_GLOBAL__N_112CMakeVersionEE6MemberEED2Ev(ptr noundef nonnull align 1 dereferenceable(1) %3) #3
  ret void
}

; Function Attrs: mustprogress uwtable
define internal void @_ZNSt12_Vector_baseIN19cmJSONHelperBuilder6ObjectIN12_GLOBAL__N_112CMakeVersionEE6MemberESaIS5_EE13_M_deallocateEPS5_m(ptr noundef nonnull align 8 dereferenceable(24) %0, ptr noundef %1, i64 noundef %2) #4 align 2 {
  %4 = alloca ptr, align 8
  %5 = alloca ptr, align 8
  %6 = alloca i64, align 8
  store ptr %0, ptr %4, align 8
  store ptr %1, ptr %5, align 8
  store i64 %2, ptr %6, align 8
  %7 = load ptr, ptr %4, align 8
  %8 = load ptr, ptr %5, align 8
  %9 = icmp ne ptr %8, null
  br i1 %9, label %10, label %14

10:                                               ; preds = %3
  %11 = getelementptr inbounds %"struct.std::_Vector_base.62", ptr %7, i32 0, i32 0
  %12 = load ptr, ptr %5, align 8
  %13 = load i64, ptr %6, align 8
  call void @_ZNSt16allocator_traitsISaIN19cmJSONHelperBuilder6ObjectIN12_GLOBAL__N_112CMakeVersionEE6MemberEEE10deallocateERS6_PS5_m(ptr noundef nonnull align 1 dereferenceable(1) %11, ptr noundef %12, i64 noundef %13)
  br label %14

14:                                               ; preds = %10, %3
  ret void
}

; Function Attrs: mustprogress uwtable
define internal void @_ZSt8_DestroyIPN19cmJSONHelperBuilder6ObjectIN12_GLOBAL__N_112CMakeVersionEE6MemberEEvT_S7_(ptr noundef %0, ptr noundef %1) #4 {
  %3 = alloca ptr, align 8
  %4 = alloca ptr, align 8
  store ptr %0, ptr %3, align 8
  store ptr %1, ptr %4, align 8
  %5 = load ptr, ptr %3, align 8
  %6 = load ptr, ptr %4, align 8
  call void @_ZNSt12_Destroy_auxILb0EE9__destroyIPN19cmJSONHelperBuilder6ObjectIN12_GLOBAL__N_112CMakeVersionEE6MemberEEEvT_S9_(ptr noundef %5, ptr noundef %6)
  ret void
}

; Function Attrs: mustprogress nounwind uwtable
define internal void @_ZNSt12_Vector_baseIN19cmJSONHelperBuilder6ObjectIN12_GLOBAL__N_112CMakeVersionEE6MemberESaIS5_EED2Ev(ptr noundef nonnull align 8 dereferenceable(24) %0) unnamed_addr #5 align 2 personality ptr @__gxx_personality_v0 {
  %2 = alloca ptr, align 8
  store ptr %0, ptr %2, align 8
  %3 = load ptr, ptr %2, align 8
  %4 = getelementptr inbounds %"struct.std::_Vector_base.62", ptr %3, i32 0, i32 0
  %5 = getelementptr inbounds %"struct.std::_Vector_base<cmJSONHelperBuilder::Object<(anonymous namespace)::CMakeVersion>::Member, std::allocator<cmJSONHelperBuilder::Object<(anonymous namespace)::CMakeVersion>::Member>>::_Vector_impl_data", ptr %4, i32 0, i32 0
  %6 = load ptr, ptr %5, align 8
  %7 = getelementptr inbounds %"struct.std::_Vector_base.62", ptr %3, i32 0, i32 0
  %8 = getelementptr inbounds %"struct.std::_Vector_base<cmJSONHelperBuilder::Object<(anonymous namespace)::CMakeVersion>::Member, std::allocator<cmJSONHelperBuilder::Object<(anonymous namespace)::CMakeVersion>::Member>>::_Vector_impl_data", ptr %7, i32 0, i32 2
  %9 = load ptr, ptr %8, align 8
  %10 = getelementptr inbounds %"struct.std::_Vector_base.62", ptr %3, i32 0, i32 0
  %11 = getelementptr inbounds %"struct.std::_Vector_base<cmJSONHelperBuilder::Object<(anonymous namespace)::CMakeVersion>::Member, std::allocator<cmJSONHelperBuilder::Object<(anonymous namespace)::CMakeVersion>::Member>>::_Vector_impl_data", ptr %10, i32 0, i32 0
  %12 = load ptr, ptr %11, align 8
  %13 = ptrtoint ptr %9 to i64
  %14 = ptrtoint ptr %12 to i64
  %15 = sub i64 %13, %14
  %16 = sdiv exact i64 %15, 56
  invoke void @_ZNSt12_Vector_baseIN19cmJSONHelperBuilder6ObjectIN12_GLOBAL__N_112CMakeVersionEE6MemberESaIS5_EE13_M_deallocateEPS5_m(ptr noundef nonnull align 8 dereferenceable(24) %3, ptr noundef %6, i64 noundef %16)
          to label %17 unwind label %19

17:                                               ; preds = %1
  %18 = getelementptr inbounds %"struct.std::_Vector_base.62", ptr %3, i32 0, i32 0
  call void @_ZNSt12_Vector_baseIN19cmJSONHelperBuilder6ObjectIN12_GLOBAL__N_112CMakeVersionEE6MemberESaIS5_EE12_Vector_implD2Ev(ptr noundef nonnull align 8 dereferenceable(24) %18) #3
  ret void

19:                                               ; preds = %1
  %20 = landingpad { ptr, i32 }
          catch ptr null
  %21 = extractvalue { ptr, i32 } %20, 0
  call void @__clang_call_terminate(ptr %21) #17
  unreachable
}

; Function Attrs: mustprogress uwtable
define internal void @_ZSt8_DestroyIPN19cmJSONHelperBuilder6ObjectIN12_GLOBAL__N_112CMakeVersionEE6MemberES5_EvT_S7_RSaIT0_E(ptr noundef %0, ptr noundef %1, ptr noundef nonnull align 1 dereferenceable(1) %2) #4 {
  %4 = alloca ptr, align 8
  %5 = alloca ptr, align 8
  %6 = alloca ptr, align 8
  store ptr %0, ptr %4, align 8
  store ptr %1, ptr %5, align 8
  store ptr %2, ptr %6, align 8
  %7 = load ptr, ptr %4, align 8
  %8 = load ptr, ptr %5, align 8
  call void @_ZSt8_DestroyIPN19cmJSONHelperBuilder6ObjectIN12_GLOBAL__N_112CMakeVersionEE6MemberEEvT_S7_(ptr noundef %7, ptr noundef %8)
  ret void
}

; Function Attrs: mustprogress nounwind uwtable
define internal noundef nonnull align 1 dereferenceable(1) ptr @_ZNSt12_Vector_baseIN19cmJSONHelperBuilder6ObjectIN12_GLOBAL__N_112CMakeVersionEE6MemberESaIS5_EE19_M_get_Tp_allocatorEv(ptr noundef nonnull align 8 dereferenceable(24) %0) #5 align 2 {
  %2 = alloca ptr, align 8
  store ptr %0, ptr %2, align 8
  %3 = load ptr, ptr %2, align 8
  %4 = getelementptr inbounds %"struct.std::_Vector_base.62", ptr %3, i32 0, i32 0
  ret ptr %4
}

; Function Attrs: mustprogress nounwind uwtable
define linkonce_odr dso_local void @_ZNSt14_Function_baseD2Ev(ptr noundef nonnull align 8 dereferenceable(24) %0) unnamed_addr #5 comdat align 2 personality ptr @__gxx_personality_v0 {
  %2 = alloca ptr, align 8
  store ptr %0, ptr %2, align 8
  %3 = load ptr, ptr %2, align 8
  %4 = getelementptr inbounds %"class.std::_Function_base", ptr %3, i32 0, i32 1
  %5 = load ptr, ptr %4, align 8
  %6 = icmp ne ptr %5, null
  br i1 %6, label %7, label %14

7:                                                ; preds = %1
  %8 = getelementptr inbounds %"class.std::_Function_base", ptr %3, i32 0, i32 1
  %9 = load ptr, ptr %8, align 8
  %10 = getelementptr inbounds %"class.std::_Function_base", ptr %3, i32 0, i32 0
  %11 = getelementptr inbounds %"class.std::_Function_base", ptr %3, i32 0, i32 0
  %12 = invoke noundef zeroext i1 %9(ptr noundef nonnull align 8 dereferenceable(16) %10, ptr noundef nonnull align 8 dereferenceable(16) %11, i32 noundef 3)
          to label %13 unwind label %15

13:                                               ; preds = %7
  br label %14

14:                                               ; preds = %13, %1
  ret void

15:                                               ; preds = %7
  %16 = landingpad { ptr, i32 }
          catch ptr null
  %17 = extractvalue { ptr, i32 } %16, 0
  call void @__clang_call_terminate(ptr %17) #17
  unreachable
}

; Function Attrs: mustprogress nounwind uwtable
define internal void @_ZNSt6vectorIN19cmJSONHelperBuilder6ObjectIN12_GLOBAL__N_112CMakeVersionEE6MemberESaIS5_EED2Ev(ptr noundef nonnull align 8 dereferenceable(24) %0) unnamed_addr #5 align 2 personality ptr @__gxx_personality_v0 {
  %2 = alloca ptr, align 8
  store ptr %0, ptr %2, align 8
  %3 = load ptr, ptr %2, align 8
  %4 = getelementptr inbounds %"struct.std::_Vector_base.62", ptr %3, i32 0, i32 0
  %5 = getelementptr inbounds %"struct.std::_Vector_base<cmJSONHelperBuilder::Object<(anonymous namespace)::CMakeVersion>::Member, std::allocator<cmJSONHelperBuilder::Object<(anonymous namespace)::CMakeVersion>::Member>>::_Vector_impl_data", ptr %4, i32 0, i32 0
  %6 = load ptr, ptr %5, align 8
  %7 = getelementptr inbounds %"struct.std::_Vector_base.62", ptr %3, i32 0, i32 0
  %8 = getelementptr inbounds %"struct.std::_Vector_base<cmJSONHelperBuilder::Object<(anonymous namespace)::CMakeVersion>::Member, std::allocator<cmJSONHelperBuilder::Object<(anonymous namespace)::CMakeVersion>::Member>>::_Vector_impl_data", ptr %7, i32 0, i32 1
  %9 = load ptr, ptr %8, align 8
  %10 = call noundef nonnull align 1 dereferenceable(1) ptr @_ZNSt12_Vector_baseIN19cmJSONHelperBuilder6ObjectIN12_GLOBAL__N_112CMakeVersionEE6MemberESaIS5_EE19_M_get_Tp_allocatorEv(ptr noundef nonnull align 8 dereferenceable(24) %3) #3
  invoke void @_ZSt8_DestroyIPN19cmJSONHelperBuilder6ObjectIN12_GLOBAL__N_112CMakeVersionEE6MemberES5_EvT_S7_RSaIT0_E(ptr noundef %6, ptr noundef %9, ptr noundef nonnull align 1 dereferenceable(1) %10)
          to label %11 unwind label %12

11:                                               ; preds = %1
  call void @_ZNSt12_Vector_baseIN19cmJSONHelperBuilder6ObjectIN12_GLOBAL__N_112CMakeVersionEE6MemberESaIS5_EED2Ev(ptr noundef nonnull align 8 dereferenceable(24) %3) #3
  ret void

12:                                               ; preds = %1
  %13 = landingpad { ptr, i32 }
          catch ptr null
  %14 = extractvalue { ptr, i32 } %13, 0
  call void @__clang_call_terminate(ptr %14) #17
  unreachable
}

; Function Attrs: mustprogress nounwind uwtable
define linkonce_odr dso_local void @_ZNSt8functionIFS_IFvPKN4Json5ValueEP11cmJSONStateEEN10JsonErrors11ObjectErrorERKSt6vectorINSt7__cxx1112basic_stringIcSt11char_traitsIcESaIcEEESaISG_EEEED2Ev(ptr noundef nonnull align 8 dereferenceable(32) %0) unnamed_addr #5 comdat align 2 {
  %2 = alloca ptr, align 8
  store ptr %0, ptr %2, align 8
  %3 = load ptr, ptr %2, align 8
  call void @_ZNSt14_Function_baseD2Ev(ptr noundef nonnull align 8 dereferenceable(24) %3) #3
  ret void
}

; Function Attrs: mustprogress nounwind uwtable
define internal void @_ZN19cmJSONHelperBuilder6ObjectIN12_GLOBAL__N_112CMakeVersionEED2Ev(ptr noundef nonnull align 8 dereferenceable(65) %0) unnamed_addr #5 align 2 {
  %2 = alloca ptr, align 8
  store ptr %0, ptr %2, align 8
  %3 = load ptr, ptr %2, align 8
  %4 = getelementptr inbounds %"class.cmJSONHelperBuilder::Object.60", ptr %3, i32 0, i32 3
  call void @_ZNSt8functionIFS_IFvPKN4Json5ValueEP11cmJSONStateEEN10JsonErrors11ObjectErrorERKSt6vectorINSt7__cxx1112basic_stringIcSt11char_traitsIcESaIcEEESaISG_EEEED2Ev(ptr noundef nonnull align 8 dereferenceable(32) %4) #3
  %5 = getelementptr inbounds %"class.cmJSONHelperBuilder::Object.60", ptr %3, i32 0, i32 0
  call void @_ZNSt6vectorIN19cmJSONHelperBuilder6ObjectIN12_GLOBAL__N_112CMakeVersionEE6MemberESaIS5_EED2Ev(ptr noundef nonnull align 8 dereferenceable(24) %5) #3
  ret void
}